; Function Attrs: mustprogress uwtable
define dso_local void @_ZNK9struct_pb8compiler18EnumFieldGenerator13default_valueB5cxx11Ev(ptr noalias sret(%"class.std::__cxx11::basic_string") align 8 %agg.result, ptr noundef nonnull align 8 dereferenceable(64) %this) local_unnamed_addr #3 align 2 personality ptr @__gxx_personality_v0 {
entry:
  %ref.tmp.i = alloca %"class.std::__cxx11::basic_string", align 8
  %ref.tmp = alloca %"class.std::__cxx11::basic_string", align 8
  %ref.tmp2 = alloca %"class.std::__cxx11::basic_string", align 8
  %d_ = getelementptr inbounds i8, ptr %this, i64 56
  %0 = load ptr, ptr %d_, align 8
  %call = tail call noundef ptr @_ZNK6google8protobuf15FieldDescriptor9enum_typeEv(ptr noundef nonnull align 8 dereferenceable(152) %0)
  %add.ptr = getelementptr inbounds i8, ptr %this, i64 8
  call void @llvm.lifetime.start.p0(i64 32, ptr nonnull %ref.tmp.i)
  %file_.i.i = getelementptr inbounds i8, ptr %call, i64 16
  %1 = load ptr, ptr %file_.i.i, align 8, !noalias !11
  call void @_ZN9struct_pb8compiler9enum_nameB5cxx11EPKN6google8protobuf14EnumDescriptorE(ptr nonnull sret(%"class.std::__cxx11::basic_string") align 8 %ref.tmp.i, ptr noundef nonnull %call), !noalias !11
  invoke void @_ZN9struct_pb8compiler27qualified_file_level_symbolEPKN6google8protobuf14FileDescriptorERKNSt7__cxx1112basic_stringIcSt11char_traitsIcESaIcEEERK7Options(ptr nonnull sret(%"class.std::__cxx11::basic_string") align 8 %ref.tmp2, ptr noundef %1, ptr noundef nonnull align 8 dereferenceable(32) %ref.tmp.i, ptr noundef nonnull align 8 dereferenceable(48) %add.ptr)
          to label %invoke.cont.i unwind label %lpad.i

invoke.cont.i:                                    ; preds = %entry
  %2 = load ptr, ptr %ref.tmp.i, align 8, !noalias !11
  %3 = getelementptr inbounds i8, ptr %ref.tmp.i, i64 16
  %cmp.i.i.i.i = icmp eq ptr %2, %3
  br i1 %cmp.i.i.i.i, label %_ZNKSt7__cxx1112basic_stringIcSt11char_traitsIcESaIcEE11_M_is_localEv.exit.thread.i.i.i, label %if.then.i.i.i

_ZNKSt7__cxx1112basic_stringIcSt11char_traitsIcESaIcEE11_M_is_localEv.exit.thread.i.i.i: ; preds = %invoke.cont.i
  %_M_string_length.i.i.i.i = getelementptr inbounds i8, ptr %ref.tmp.i, i64 8
  %4 = load i64, ptr %_M_string_length.i.i.i.i, align 8, !noalias !11
  %cmp3.i.i.i.i = icmp ult i64 %4, 16
  call void @llvm.assume(i1 %cmp3.i.i.i.i)
  br label %_ZN9struct_pb8compiler19qualified_enum_nameB5cxx11EPKN6google8protobuf14EnumDescriptorERK7Options.exit

if.then.i.i.i:                                    ; preds = %invoke.cont.i
  call void @_ZdlPv(ptr noundef %2) #19
  br label %_ZN9struct_pb8compiler19qualified_enum_nameB5cxx11EPKN6google8protobuf14EnumDescriptorERK7Options.exit

common.resume:                                    ; preds = %lpad, %lpad4, %lpad.i
  %ref.tmp2.sink = phi ptr [ %ref.tmp.i, %lpad.i ], [ %ref.tmp2, %lpad4 ], [ %ref.tmp2, %lpad ]
  %common.resume.op = phi { ptr, i32 } [ %5, %lpad.i ], [ %15, %lpad4 ], [ %14, %lpad ]
  call void @_ZNSt7__cxx1112basic_stringIcSt11char_traitsIcESaIcEED2Ev(ptr noundef nonnull align 8 dereferenceable(32) %ref.tmp2.sink) #20
  resume { ptr, i32 } %common.resume.op

lpad.i:                                           ; preds = %entry
  %5 = landingpad { ptr, i32 }
          cleanup
  br label %common.resume

_ZN9struct_pb8compiler19qualified_enum_nameB5cxx11EPKN6google8protobuf14EnumDescriptorERK7Options.exit: ; preds = %_ZNKSt7__cxx1112basic_stringIcSt11char_traitsIcESaIcEE11_M_is_localEv.exit.thread.i.i.i, %if.then.i.i.i
  call void @_ZNSaIcED2Ev(ptr noundef nonnull align 1 dereferenceable(1) %ref.tmp.i) #20
  call void @llvm.lifetime.end.p0(i64 32, ptr nonnull %ref.tmp.i)
  invoke void @_ZStplIcSt11char_traitsIcESaIcEENSt7__cxx1112basic_stringIT_T0_T1_EEOS8_PKS5_(ptr nonnull sret(%"class.std::__cxx11::basic_string") align 8 %ref.tmp, ptr noundef nonnull align 8 dereferenceable(32) %ref.tmp2, ptr noundef nonnull @.str.41)
          to label %invoke.cont unwind label %lpad

invoke.cont:                                      ; preds = %_ZN9struct_pb8compiler19qualified_enum_nameB5cxx11EPKN6google8protobuf14EnumDescriptorERK7Options.exit
  %6 = load ptr, ptr %d_, align 8
  %call6 = invoke noundef ptr @_ZNK6google8protobuf15FieldDescriptor18default_value_enumEv(ptr noundef nonnull align 8 dereferenceable(152) %6)
          to label %invoke.cont5 unwind label %lpad4

invoke.cont5:                                     ; preds = %invoke.cont
  %7 = load ptr, ptr %call6, align 8
  invoke void @_ZStplIcSt11char_traitsIcESaIcEENSt7__cxx1112basic_stringIT_T0_T1_EEOS8_RKS8_(ptr sret(%"class.std::__cxx11::basic_string") align 8 %agg.result, ptr noundef nonnull align 8 dereferenceable(32) %ref.tmp, ptr noundef nonnull align 8 dereferenceable(32) %7)
          to label %invoke.cont9 unwind label %lpad4

invoke.cont9:                                     ; preds = %invoke.cont5
  %8 = load ptr, ptr %ref.tmp, align 8
  %9 = getelementptr inbounds i8, ptr %ref.tmp, i64 16
  %cmp.i.i.i = icmp eq ptr %8, %9
  br i1 %cmp.i.i.i, label %_ZNKSt7__cxx1112basic_stringIcSt11char_traitsIcESaIcEE11_M_is_localEv.exit.thread.i.i, label %if.then.i.i

_ZNKSt7__cxx1112basic_stringIcSt11char_traitsIcESaIcEE11_M_is_localEv.exit.thread.i.i: ; preds = %invoke.cont9
  %_M_string_length.i.i.i = getelementptr inbounds i8, ptr %ref.tmp, i64 8
  %10 = load i64, ptr %_M_string_length.i.i.i, align 8
  %cmp3.i.i.i = icmp ult i64 %10, 16
  call void @llvm.assume(i1 %cmp3.i.i.i)
  br label %_ZNSt7__cxx1112basic_stringIcSt11char_traitsIcESaIcEED2Ev.exit

if.then.i.i:                                      ; preds = %invoke.cont9
  call void @_ZdlPv(ptr noundef %8) #19
  br label %_ZNSt7__cxx1112basic_stringIcSt11char_traitsIcESaIcEED2Ev.exit

_ZNSt7__cxx1112basic_stringIcSt11char_traitsIcESaIcEED2Ev.exit: ; preds = %_ZNKSt7__cxx1112basic_stringIcSt11char_traitsIcESaIcEE11_M_is_localEv.exit.thread.i.i, %if.then.i.i
  call void @_ZNSaIcED2Ev(ptr noundef nonnull align 1 dereferenceable(1) %ref.tmp) #20
  %11 = load ptr, ptr %ref.tmp2, align 8
  %12 = getelementptr inbounds i8, ptr %ref.tmp2, i64 16
  %cmp.i.i.i3 = icmp eq ptr %11, %12
  br i1 %cmp.i.i.i3, label %_ZNKSt7__cxx1112basic_stringIcSt11char_traitsIcESaIcEE11_M_is_localEv.exit.thread.i.i6, label %if.then.i.i4

_ZNKSt7__cxx1112basic_stringIcSt11char_traitsIcESaIcEE11_M_is_localEv.exit.thread.i.i6: ; preds = %_ZNSt7__cxx1112basic_stringIcSt11char_traitsIcESaIcEED2Ev.exit
  %_M_string_length.i.i.i7 = getelementptr inbounds i8, ptr %ref.tmp2, i64 8
  %13 = load i64, ptr %_M_string_length.i.i.i7, align 8
  %cmp3.i.i.i8 = icmp ult i64 %13, 16
  call void @llvm.assume(i1 %cmp3.i.i.i8)
  br label %_ZNSt7__cxx1112basic_stringIcSt11char_traitsIcESaIcEED2Ev.exit9

if.then.i.i4:                                     ; preds = %_ZNSt7__cxx1112basic_stringIcSt11char_traitsIcESaIcEED2Ev.exit
  call void @_ZdlPv(ptr noundef %11) #19
  br label %_ZNSt7__cxx1112basic_stringIcSt11char_traitsIcESaIcEED2Ev.exit9

_ZNSt7__cxx1112basic_stringIcSt11char_traitsIcESaIcEED2Ev.exit9: ; preds = %_ZNKSt7__cxx1112basic_stringIcSt11char_traitsIcESaIcEE11_M_is_localEv.exit.thread.i.i6, %if.then.i.i4
  call void @_ZNSaIcED2Ev(ptr noundef nonnull align 1 dereferenceable(1) %ref.tmp2) #20
  ret void

lpad:                                             ; preds = %_ZN9struct_pb8compiler19qualified_enum_nameB5cxx11EPKN6google8protobuf14EnumDescriptorERK7Options.exit
  %14 = landingpad { ptr, i32 }
          cleanup
  br label %common.resume

lpad4:                                            ; preds = %invoke.cont5, %invoke.cont
  %15 = landingpad { ptr, i32 }
          cleanup
  call void @_ZNSt7__cxx1112basic_stringIcSt11char_traitsIcESaIcEED2Ev(ptr noundef nonnull align 8 dereferenceable(32) %ref.tmp) #20
  br label %common.resume
}